	.file	"benchmark.c"
# GNU C17 (Ubuntu 9.4.0-1ubuntu1~20.04.1) version 9.4.0 (x86_64-linux-gnu)
#	compiled by GNU C version 9.4.0, GMP version 6.2.0, MPFR version 4.0.2, MPC version 1.1.0, isl version isl-0.22.1-GMP

# GGC heuristics: --param ggc-min-expand=100 --param ggc-min-heapsize=131072
# options passed:  -imultiarch x86_64-linux-gnu benchmark.c -mtune=generic
# -march=x86-64 -O2 -fverbose-asm -fasynchronous-unwind-tables
# -fstack-protector-strong -Wformat -Wformat-security
# -fstack-clash-protection -fcf-protection
# options enabled:  -fPIC -fPIE -faggressive-loop-optimizations
# -falign-functions -falign-jumps -falign-labels -falign-loops
# -fassume-phsa -fasynchronous-unwind-tables -fauto-inc-dec
# -fbranch-count-reg -fcaller-saves -fcode-hoisting
# -fcombine-stack-adjustments -fcommon -fcompare-elim -fcprop-registers
# -fcrossjumping -fcse-follow-jumps -fdefer-pop
# -fdelete-null-pointer-checks -fdevirtualize -fdevirtualize-speculatively
# -fdwarf2-cfi-asm -fearly-inlining -feliminate-unused-debug-types
# -fexpensive-optimizations -fforward-propagate -ffp-int-builtin-inexact
# -ffunction-cse -fgcse -fgcse-lm -fgnu-runtime -fgnu-unique
# -fguess-branch-probability -fhoist-adjacent-loads -fident -fif-conversion
# -fif-conversion2 -findirect-inlining -finline -finline-atomics
# -finline-functions-called-once -finline-small-functions -fipa-bit-cp
# -fipa-cp -fipa-icf -fipa-icf-functions -fipa-icf-variables -fipa-profile
# -fipa-pure-const -fipa-ra -fipa-reference -fipa-reference-addressable
# -fipa-sra -fipa-stack-alignment -fipa-vrp -fira-hoist-pressure
# -fira-share-save-slots -fira-share-spill-slots
# -fisolate-erroneous-paths-dereference -fivopts -fkeep-static-consts
# -fleading-underscore -flifetime-dse -flra-remat -flto-odr-type-merging
# -fmath-errno -fmerge-constants -fmerge-debug-strings
# -fmove-loop-invariants -fomit-frame-pointer -foptimize-sibling-calls
# -foptimize-strlen -fpartial-inlining -fpeephole -fpeephole2 -fplt
# -fprefetch-loop-arrays -free -freg-struct-return -freorder-blocks
# -freorder-blocks-and-partition -freorder-functions -frerun-cse-after-loop
# -fsched-critical-path-heuristic -fsched-dep-count-heuristic
# -fsched-group-heuristic -fsched-interblock -fsched-last-insn-heuristic
# -fsched-rank-heuristic -fsched-spec -fsched-spec-insn-heuristic
# -fsched-stalled-insns-dep -fschedule-fusion -fschedule-insns2
# -fsemantic-interposition -fshow-column -fshrink-wrap
# -fshrink-wrap-separate -fsigned-zeros -fsplit-ivs-in-unroller
# -fsplit-wide-types -fssa-backprop -fssa-phiopt -fstack-clash-protection
# -fstack-protector-strong -fstdarg-opt -fstore-merging -fstrict-aliasing
# -fstrict-volatile-bitfields -fsync-libcalls -fthread-jumps
# -ftoplevel-reorder -ftrapping-math -ftree-bit-ccp -ftree-builtin-call-dce
# -ftree-ccp -ftree-ch -ftree-coalesce-vars -ftree-copy-prop -ftree-cselim
# -ftree-dce -ftree-dominator-opts -ftree-dse -ftree-forwprop -ftree-fre
# -ftree-loop-if-convert -ftree-loop-im -ftree-loop-ivcanon
# -ftree-loop-optimize -ftree-parallelize-loops= -ftree-phiprop -ftree-pre
# -ftree-pta -ftree-reassoc -ftree-scev-cprop -ftree-sink -ftree-slsr
# -ftree-sra -ftree-switch-conversion -ftree-tail-merge -ftree-ter
# -ftree-vrp -funit-at-a-time -funwind-tables -fverbose-asm
# -fzero-initialized-in-bss -m128bit-long-double -m64 -m80387
# -malign-stringops -mavx256-split-unaligned-load
# -mavx256-split-unaligned-store -mfancy-math-387 -mfp-ret-in-387 -mfxsr
# -mglibc -mieee-fp -mlong-double-80 -mmmx -mno-sse4 -mpush-args -mred-zone
# -msse -msse2 -mstv -mtls-direct-seg-refs -mvzeroupper

	.text
	.section	.rodata.str1.1,"aMS",@progbits,1
.LC1:
	.string	"Execution time: %11.8f s\n"
.LC2:
	.string	"funnysum = %f \n"
	.section	.text.startup,"ax",@progbits
	.p2align 4
	.globl	main
	.type	main, @function
main:
.LFB23:
	.cfi_startproc
	endbr64	
	pushq	%r12	#
	.cfi_def_cfa_offset 16
	.cfi_offset 12, -16
	pushq	%rbp	#
	.cfi_def_cfa_offset 24
	.cfi_offset 6, -24
	subq	$72, %rsp	#,
	.cfi_def_cfa_offset 96
# benchmark.c:7: int main(){
	movq	%fs:40, %rax	# MEM[(<address-space-1> long unsigned int *)40B], tmp112
	movq	%rax, 56(%rsp)	# tmp112, D.2637
	xorl	%eax, %eax	# tmp112
# benchmark.c:47:   i = gettimeofday(&tp,&tzp);
	leaq	24(%rsp), %r12	#, tmp97
	leaq	32(%rsp), %rbp	#, tmp98
	movq	%r12, %rsi	# tmp97,
	movq	%rbp, %rdi	# tmp98,
	call	gettimeofday@PLT	#
# benchmark.c:48:   return ( (double) tp.tv_sec + (double) tp.tv_usec * 1.e-6 );
	pxor	%xmm0, %xmm0	# tmp99
# benchmark.c:48:   return ( (double) tp.tv_sec + (double) tp.tv_usec * 1.e-6 );
	pxor	%xmm1, %xmm1	# tmp102
# benchmark.c:47:   i = gettimeofday(&tp,&tzp);
	movq	%r12, %rsi	# tmp97,
# benchmark.c:48:   return ( (double) tp.tv_sec + (double) tp.tv_usec * 1.e-6 );
	cvtsi2sdq	40(%rsp), %xmm0	# tp.tv_usec, tmp99
# benchmark.c:48:   return ( (double) tp.tv_sec + (double) tp.tv_usec * 1.e-6 );
	mulsd	.LC0(%rip), %xmm0	#, tmp100
# benchmark.c:47:   i = gettimeofday(&tp,&tzp);
	movq	%rbp, %rdi	# tmp98,
# benchmark.c:48:   return ( (double) tp.tv_sec + (double) tp.tv_usec * 1.e-6 );
	cvtsi2sdq	32(%rsp), %xmm1	# tp.tv_sec, tmp102
# benchmark.c:48:   return ( (double) tp.tv_sec + (double) tp.tv_usec * 1.e-6 );
	addsd	%xmm1, %xmm0	# tmp102, tmp100
	movsd	%xmm0, 8(%rsp)	# tmp100, %sfp
# benchmark.c:47:   i = gettimeofday(&tp,&tzp);
	call	gettimeofday@PLT	#
# benchmark.c:48:   return ( (double) tp.tv_sec + (double) tp.tv_usec * 1.e-6 );
	pxor	%xmm0, %xmm0	# tmp105
# benchmark.c:48:   return ( (double) tp.tv_sec + (double) tp.tv_usec * 1.e-6 );
	pxor	%xmm1, %xmm1	# tmp108
# /usr/include/x86_64-linux-gnu/bits/stdio2.h:107:   return __printf_chk (__USE_FORTIFY_LEVEL - 1, __fmt, __va_arg_pack ());
	leaq	.LC1(%rip), %rsi	#,
# benchmark.c:48:   return ( (double) tp.tv_sec + (double) tp.tv_usec * 1.e-6 );
	cvtsi2sdq	40(%rsp), %xmm0	# tp.tv_usec, tmp105
# /usr/include/x86_64-linux-gnu/bits/stdio2.h:107:   return __printf_chk (__USE_FORTIFY_LEVEL - 1, __fmt, __va_arg_pack ());
	movl	$1, %edi	#,
	movl	$1, %eax	#,
# benchmark.c:48:   return ( (double) tp.tv_sec + (double) tp.tv_usec * 1.e-6 );
	mulsd	.LC0(%rip), %xmm0	#, tmp106
# benchmark.c:48:   return ( (double) tp.tv_sec + (double) tp.tv_usec * 1.e-6 );
	cvtsi2sdq	32(%rsp), %xmm1	# tp.tv_sec, tmp108
# benchmark.c:48:   return ( (double) tp.tv_sec + (double) tp.tv_usec * 1.e-6 );
	addsd	%xmm1, %xmm0	# tmp108, _14
# benchmark.c:24:   printf("Execution time: %11.8f s\n", (t2 - t1));
	subsd	8(%rsp), %xmm0	# %sfp, tmp109
# /usr/include/x86_64-linux-gnu/bits/stdio2.h:107:   return __printf_chk (__USE_FORTIFY_LEVEL - 1, __fmt, __va_arg_pack ());
	call	__printf_chk@PLT	#
	pxor	%xmm0, %xmm0	#
	movl	$1, %edi	#,
	leaq	.LC2(%rip), %rsi	#,
	movl	$1, %eax	#,
	call	__printf_chk@PLT	#
# benchmark.c:37: }
	movq	56(%rsp), %rax	# D.2637, tmp113
	xorq	%fs:40, %rax	# MEM[(<address-space-1> long unsigned int *)40B], tmp113
	jne	.L5	#,
	addq	$72, %rsp	#,
	.cfi_remember_state
	.cfi_def_cfa_offset 24
	xorl	%eax, %eax	#
	popq	%rbp	#
	.cfi_def_cfa_offset 16
	popq	%r12	#
	.cfi_def_cfa_offset 8
	ret	
.L5:
	.cfi_restore_state
	call	__stack_chk_fail@PLT	#
	.cfi_endproc
.LFE23:
	.size	main, .-main
	.text
	.p2align 4
	.globl	mysecond
	.type	mysecond, @function
mysecond:
.LFB24:
	.cfi_startproc
	endbr64	
	subq	$56, %rsp	#,
	.cfi_def_cfa_offset 64
# benchmark.c:42: double mysecond(){
	movq	%fs:40, %rax	# MEM[(<address-space-1> long unsigned int *)40B], tmp97
	movq	%rax, 40(%rsp)	# tmp97, D.2644
	xorl	%eax, %eax	# tmp97
# benchmark.c:47:   i = gettimeofday(&tp,&tzp);
	leaq	8(%rsp), %rsi	#, tmp89
	leaq	16(%rsp), %rdi	#, tmp90
	call	gettimeofday@PLT	#
# benchmark.c:48:   return ( (double) tp.tv_sec + (double) tp.tv_usec * 1.e-6 );
	pxor	%xmm0, %xmm0	# tmp91
# benchmark.c:48:   return ( (double) tp.tv_sec + (double) tp.tv_usec * 1.e-6 );
	pxor	%xmm1, %xmm1	# tmp94
# benchmark.c:49: }
	movq	40(%rsp), %rax	# D.2644, tmp98
	xorq	%fs:40, %rax	# MEM[(<address-space-1> long unsigned int *)40B], tmp98
# benchmark.c:48:   return ( (double) tp.tv_sec + (double) tp.tv_usec * 1.e-6 );
	cvtsi2sdq	24(%rsp), %xmm0	# tp.tv_usec, tmp91
# benchmark.c:48:   return ( (double) tp.tv_sec + (double) tp.tv_usec * 1.e-6 );
	mulsd	.LC0(%rip), %xmm0	#, tmp92
# benchmark.c:48:   return ( (double) tp.tv_sec + (double) tp.tv_usec * 1.e-6 );
	cvtsi2sdq	16(%rsp), %xmm1	# tp.tv_sec, tmp94
# benchmark.c:48:   return ( (double) tp.tv_sec + (double) tp.tv_usec * 1.e-6 );
	addsd	%xmm1, %xmm0	# tmp94, <retval>
# benchmark.c:49: }
	jne	.L9	#,
	addq	$56, %rsp	#,
	.cfi_remember_state
	.cfi_def_cfa_offset 8
	ret	
.L9:
	.cfi_restore_state
	call	__stack_chk_fail@PLT	#
	.cfi_endproc
.LFE24:
	.size	mysecond, .-mysecond
	.section	.rodata.cst8,"aM",@progbits,8
	.align 8
.LC0:
	.long	2696277389
	.long	1051772663
	.ident	"GCC: (Ubuntu 9.4.0-1ubuntu1~20.04.1) 9.4.0"
	.section	.note.GNU-stack,"",@progbits
	.section	.note.gnu.property,"a"
	.align 8
	.long	 1f - 0f
	.long	 4f - 1f
	.long	 5
0:
	.string	 "GNU"
1:
	.align 8
	.long	 0xc0000002
	.long	 3f - 2f
2:
	.long	 0x3
3:
	.align 8
4:
